Certificate:
    Data:
        Version: 3 (0x2)
        Serial Number: 14 (0xe)
        Signature Algorithm: sha256WithRSAEncryption
        Issuer: C=US, O=Google, OU=Enterprise, CN=Enterprise Subordinate CA
        Validity
            Not Before: May 19 14:13:07 2022 GMT
            Not After : Aug 26 14:13:07 2024 GMT
        Subject: C=US, O=Google, OU=Enterprise, CN=envoy.yourdomain.com
        Subject Public Key Info:
            Public Key Algorithm: rsaEncryption
                RSA Public-Key: (2048 bit)
                Modulus:
                    00:db:9f:6d:a6:a8:46:9a:2f:f0:50:f7:27:ec:cc:
                    2c:43:fc:4d:06:64:3b:24:b2:14:46:04:df:65:6c:
                    a8:bc:e1:f3:8c:18:30:1b:df:37:61:95:53:11:70:
                    bc:9f:38:15:a0:20:58:a9:17:cd:0d:06:ee:21:1e:
                    e4:9a:64:1e:fa:a2:f8:b2:04:ca:9a:d6:36:80:bc:
                    77:d5:ea:99:6b:06:b2:eb:f9:f9:ba:dd:93:f6:7c:
                    61:40:4d:f1:32:20:fe:66:b7:24:27:73:e3:85:f4:
                    38:0a:9a:e8:6d:92:9a:dd:d9:13:13:12:57:81:6b:
                    50:20:fe:ae:c0:d4:12:ce:e7:e2:eb:9b:ed:a7:40:
                    d4:3b:fa:30:c0:ec:5f:e5:2c:39:45:c6:93:e8:4e:
                    b8:d0:6d:52:41:4d:e4:c5:53:63:5e:80:18:19:fe:
                    3f:95:72:de:f6:06:39:98:5d:f3:7b:bd:7d:0a:f9:
                    2c:45:58:9b:dc:0e:39:10:c7:65:80:55:3d:77:72:
                    3d:77:de:f7:28:08:a4:02:2e:0a:77:ce:d4:4f:9c:
                    f0:d0:3a:a5:61:60:5a:1e:b7:b8:79:36:6a:b2:e7:
                    4d:e9:f2:71:1b:bc:c7:69:c6:8f:71:39:39:d6:33:
                    47:1a:85:cd:ef:c3:15:25:47:c4:a9:03:c5:c0:17:
                    29:a7
                Exponent: 65537 (0x10001)
        X509v3 extensions:
            X509v3 Key Usage: critical
                Digital Signature
            X509v3 Basic Constraints: 
                CA:FALSE
            X509v3 Extended Key Usage: 
                TLS Web Server Authentication
            X509v3 Subject Key Identifier: 
                31:79:43:6B:F8:65:B2:7F:06:CD:7D:A0:2B:A6:EE:16:16:BC:E9:CD
            X509v3 Authority Key Identifier: 
                keyid:B7:BA:B0:02:A1:E7:BE:34:C6:C1:05:5C:66:78:E5:BB:53:5D:A1:54

            Authority Information Access: 
                CA Issuers - URI:http://pki.esodemoapp2.com/ca/tls-ca.cer

            X509v3 CRL Distribution Points: 

                Full Name:
                  URI:http://pki.esodemoapp2.com/ca/tls-ca.crl

            X509v3 Subject Alternative Name: 
                DNS:envoy.yourdomain.com
    Signature Algorithm: sha256WithRSAEncryption
         04:bc:95:ca:ca:76:55:3d:8c:7b:d6:b9:76:b5:0c:f3:ce:30:
         89:da:8a:7b:5c:a1:13:13:26:69:47:d0:b1:95:fb:98:8b:18:
         b7:e7:4f:c5:56:a6:9b:b8:66:5f:59:77:1a:06:ea:fb:63:b4:
         22:bb:da:41:e7:67:f6:b9:35:bb:4a:8d:c4:70:50:29:de:f0:
         e8:9e:2d:c6:2d:49:48:3f:ba:a2:9b:d7:62:50:a8:38:8a:6c:
         d2:fc:6a:2b:24:69:6c:fc:a2:ee:fc:b4:0b:53:1a:ad:4f:3c:
         b1:25:01:05:e5:1b:f6:2b:77:3c:f6:59:c9:b8:d8:91:45:9b:
         9b:7e:7d:50:bc:2c:07:96:48:b6:e3:21:a8:26:89:9f:58:18:
         ff:d0:1e:0f:d8:f2:b7:60:32:0a:67:92:eb:5a:35:31:85:96:
         26:86:fa:e2:c7:56:32:58:2e:a1:5f:d6:82:e4:fc:0c:c9:6e:
         6c:a2:30:f5:0d:43:ce:b5:bd:0e:10:9a:fa:4d:e7:ec:7d:8f:
         29:0b:d7:2a:05:ee:15:fc:72:18:84:70:24:3f:2e:3a:9b:74:
         c8:73:2d:13:6d:37:0a:ca:ba:a5:c9:01:89:84:df:5b:89:6c:
         80:94:67:35:d0:fb:19:d7:64:7a:70:30:ba:c3:83:e2:53:e5:
         02:f8:48:f3
-----BEGIN CERTIFICATE-----
MIIEPDCCAySgAwIBAgIBDjANBgkqhkiG9w0BAQsFADBXMQswCQYDVQQGEwJVUzEP
MA0GA1UECgwGR29vZ2xlMRMwEQYDVQQLDApFbnRlcnByaXNlMSIwIAYDVQQDDBlF
bnRlcnByaXNlIFN1Ym9yZGluYXRlIENBMB4XDTIyMDUxOTE0MTMwN1oXDTI0MDgy
NjE0MTMwN1owUjELMAkGA1UEBhMCVVMxDzANBgNVBAoMBkdvb2dsZTETMBEGA1UE
CwwKRW50ZXJwcmlzZTEdMBsGA1UEAwwUZW52b3kueW91cmRvbWFpbi5jb20wggEi
MA0GCSqGSIb3DQEBAQUAA4IBDwAwggEKAoIBAQDbn22mqEaaL/BQ9yfszCxD/E0G
ZDskshRGBN9lbKi84fOMGDAb3zdhlVMRcLyfOBWgIFipF80NBu4hHuSaZB76oviy
BMqa1jaAvHfV6plrBrLr+fm63ZP2fGFATfEyIP5mtyQnc+OF9DgKmuhtkprd2RMT
EleBa1Ag/q7A1BLO5+Lrm+2nQNQ7+jDA7F/lLDlFxpPoTrjQbVJBTeTFU2NegBgZ
/j+Vct72BjmYXfN7vX0K+SxFWJvcDjkQx2WAVT13cj133vcoCKQCLgp3ztRPnPDQ
OqVhYFoet7h5Nmqy503p8nEbvMdpxo9xOTnWM0cahc3vwxUlR8SpA8XAFymnAgMB
AAGjggEWMIIBEjAOBgNVHQ8BAf8EBAMCB4AwCQYDVR0TBAIwADATBgNVHSUEDDAK
BggrBgEFBQcDATAdBgNVHQ4EFgQUMXlDa/hlsn8GzX2gK6buFha86c0wHwYDVR0j
BBgwFoAUt7qwAqHnvjTGwQVcZnjlu1NdoVQwRAYIKwYBBQUHAQEEODA2MDQGCCsG
AQUFBzAChihodHRwOi8vcGtpLmVzb2RlbW9hcHAyLmNvbS9jYS90bHMtY2EuY2Vy
MDkGA1UdHwQyMDAwLqAsoCqGKGh0dHA6Ly9wa2kuZXNvZGVtb2FwcDIuY29tL2Nh
L3Rscy1jYS5jcmwwHwYDVR0RBBgwFoIUZW52b3kueW91cmRvbWFpbi5jb20wDQYJ
KoZIhvcNAQELBQADggEBAAS8lcrKdlU9jHvWuXa1DPPOMInaintcoRMTJmlH0LGV
+5iLGLfnT8VWppu4Zl9ZdxoG6vtjtCK72kHnZ/a5NbtKjcRwUCne8OieLcYtSUg/
uqKb12JQqDiKbNL8aiskaWz8ou78tAtTGq1PPLElAQXlG/Yrdzz2Wcm42JFFm5t+
fVC8LAeWSLbjIagmiZ9YGP/QHg/Y8rdgMgpnkutaNTGFliaG+uLHVjJYLqFf1oLk
/AzJbmyiMPUNQ861vQ4QmvpN5+x9jykL1yoF7hX8chiEcCQ/LjqbdMhzLRNtNwrK
uqXJAYmE31uJbICUZzXQ+xnXZHpwMLrDg+JT5QL4SPM=
-----END CERTIFICATE-----
