Certificate:
    Data:
        Version: 3 (0x2)
        Serial Number: 41 (0x29)
        Signature Algorithm: sha256WithRSAEncryption
        Issuer: C=US, O=Google, OU=Enterprise, CN=Single Root CA
        Validity
            Not Before: Aug 29 10:53:35 2024 GMT
            Not After : Aug 29 10:53:35 2034 GMT
        Subject: C=US, O=Google, OU=Enterprise, CN=redis.domain.com
        Subject Public Key Info:
            Public Key Algorithm: rsaEncryption
                Public-Key: (2048 bit)
                Modulus:
                    00:e4:b7:f1:a9:68:a8:d2:d5:0c:86:f4:c5:c4:3c:
                    5b:70:2c:2f:c8:0f:da:80:b7:5d:20:26:24:3e:86:
                    5a:fb:b2:51:9c:65:7e:59:52:66:96:21:32:54:f3:
                    5e:43:07:19:a7:7e:4e:e9:51:67:e3:8f:eb:9a:1f:
                    dd:60:5d:b7:ee:35:34:80:31:89:30:10:b1:3d:00:
                    96:e7:9c:6b:f5:a7:e8:0f:83:00:76:66:8d:39:cc:
                    29:94:63:0d:44:82:c4:2b:2f:e5:3e:57:aa:d0:5f:
                    95:16:e1:bf:75:34:e2:62:7a:75:b3:49:40:04:dc:
                    cc:6b:b7:0c:58:9c:28:25:3f:05:49:d0:34:df:9d:
                    41:b5:21:21:e5:b8:5a:41:7b:e8:34:37:3d:11:bc:
                    3e:24:44:ac:04:38:25:57:ec:9e:c9:e7:49:91:2d:
                    40:82:8e:ea:96:68:c1:40:19:74:02:e0:54:bf:29:
                    28:65:aa:0b:f8:67:a2:9d:8a:f5:ce:0d:86:8b:2d:
                    38:94:7c:8d:91:fa:da:f0:6f:4a:5c:44:4c:e7:67:
                    84:1d:c0:14:83:90:3d:4e:c7:53:02:df:e2:0d:8e:
                    31:76:13:b8:e7:af:2f:67:5c:2e:d8:76:bd:ae:08:
                    45:6e:23:90:65:d3:53:2f:c1:b3:c7:5e:f9:7f:d0:
                    92:fb
                Exponent: 65537 (0x10001)
        X509v3 extensions:
            X509v3 Key Usage: critical
                Digital Signature
            X509v3 Basic Constraints: 
                CA:FALSE
            X509v3 Extended Key Usage: 
                TLS Web Server Authentication
            X509v3 Subject Key Identifier: 
                58:46:96:CE:03:08:AB:DE:3F:3D:B0:22:C6:0D:EB:79:50:4F:CF:CF
            X509v3 Authority Key Identifier: 
                EC:F0:EA:53:53:3F:9F:23:DC:C1:0E:31:10:37:07:DE:DE:E7:6E:F3
            Authority Information Access: 
                CA Issuers - URI:http://pki.esodemoapp2.com/ca/root-ca.cer
            X509v3 CRL Distribution Points: 
                Full Name:
                  URI:http://pki.esodemoapp2.com/ca/root-ca.crl
            X509v3 Subject Alternative Name: 
                DNS:redis.domain.com
    Signature Algorithm: sha256WithRSAEncryption
    Signature Value:
        2a:63:60:61:f4:f3:f2:02:68:d0:41:fb:da:e4:2e:f4:50:32:
        28:e3:aa:f3:06:99:0d:e0:03:72:77:05:f0:c9:9a:9e:ec:3e:
        66:ad:59:24:65:a7:72:bf:67:93:b8:b1:63:cd:c2:2e:dd:35:
        95:83:f6:f9:19:55:8d:b1:b9:07:4e:b7:c6:75:3e:9b:69:3f:
        d2:91:ee:25:dd:e2:df:e3:e6:82:74:df:8c:d4:82:6f:ad:1f:
        c2:3f:2e:4e:6a:43:07:d6:d9:c9:98:59:19:ad:f7:83:93:39:
        a8:02:13:9b:86:e0:bf:3b:c2:7a:4d:62:6a:3e:ab:b7:1e:7e:
        8b:d1:a8:a3:f0:b1:82:61:76:6e:4f:8d:72:0c:b8:98:ee:d6:
        b9:d7:b5:6e:83:f8:ba:53:94:55:c5:95:ca:06:f8:7a:07:b1:
        95:7a:e4:8f:2c:58:52:0c:d0:0c:86:9e:78:0b:07:7c:98:f2:
        c3:3a:58:13:0c:08:82:2b:64:81:03:c8:fa:be:38:66:a9:52:
        bd:4d:42:c7:40:ed:5e:68:5e:64:9a:10:2c:bb:61:ac:45:6c:
        a8:99:aa:39:42:f7:c9:07:7a:9b:80:89:96:08:fd:10:16:1a:
        92:71:7e:7e:11:e0:7b:df:ec:e7:2e:75:30:b9:e7:3c:5e:9b:
        fe:7d:1c:59
-----BEGIN CERTIFICATE-----
MIIEKzCCAxOgAwIBAgIBKTANBgkqhkiG9w0BAQsFADBMMQswCQYDVQQGEwJVUzEP
MA0GA1UECgwGR29vZ2xlMRMwEQYDVQQLDApFbnRlcnByaXNlMRcwFQYDVQQDDA5T
aW5nbGUgUm9vdCBDQTAeFw0yNDA4MjkxMDUzMzVaFw0zNDA4MjkxMDUzMzVaME4x
CzAJBgNVBAYTAlVTMQ8wDQYDVQQKDAZHb29nbGUxEzARBgNVBAsMCkVudGVycHJp
c2UxGTAXBgNVBAMMEHJlZGlzLmRvbWFpbi5jb20wggEiMA0GCSqGSIb3DQEBAQUA
A4IBDwAwggEKAoIBAQDkt/GpaKjS1QyG9MXEPFtwLC/ID9qAt10gJiQ+hlr7slGc
ZX5ZUmaWITJU815DBxmnfk7pUWfjj+uaH91gXbfuNTSAMYkwELE9AJbnnGv1p+gP
gwB2Zo05zCmUYw1EgsQrL+U+V6rQX5UW4b91NOJienWzSUAE3MxrtwxYnCglPwVJ
0DTfnUG1ISHluFpBe+g0Nz0RvD4kRKwEOCVX7J7J50mRLUCCjuqWaMFAGXQC4FS/
KShlqgv4Z6KdivXODYaLLTiUfI2R+trwb0pcREznZ4QdwBSDkD1Ox1MC3+INjjF2
E7jnry9nXC7Ydr2uCEVuI5Bl01MvwbPHXvl/0JL7AgMBAAGjggEUMIIBEDAOBgNV
HQ8BAf8EBAMCB4AwCQYDVR0TBAIwADATBgNVHSUEDDAKBggrBgEFBQcDATAdBgNV
HQ4EFgQUWEaWzgMIq94/PbAixg3reVBPz88wHwYDVR0jBBgwFoAU7PDqU1M/nyPc
wQ4xEDcH3t7nbvMwRQYIKwYBBQUHAQEEOTA3MDUGCCsGAQUFBzAChilodHRwOi8v
cGtpLmVzb2RlbW9hcHAyLmNvbS9jYS9yb290LWNhLmNlcjA6BgNVHR8EMzAxMC+g
LaArhilodHRwOi8vcGtpLmVzb2RlbW9hcHAyLmNvbS9jYS9yb290LWNhLmNybDAb
BgNVHREEFDASghByZWRpcy5kb21haW4uY29tMA0GCSqGSIb3DQEBCwUAA4IBAQAq
Y2Bh9PPyAmjQQfva5C70UDIo46rzBpkN4ANydwXwyZqe7D5mrVkkZadyv2eTuLFj
zcIu3TWVg/b5GVWNsbkHTrfGdT6baT/Ske4l3eLf4+aCdN+M1IJvrR/CPy5OakMH
1tnJmFkZrfeDkzmoAhObhuC/O8J6TWJqPqu3Hn6L0aij8LGCYXZuT41yDLiY7ta5
17Vug/i6U5RVxZXKBvh6B7GVeuSPLFhSDNAMhp54Cwd8mPLDOlgTDAiCK2SBA8j6
vjhmqVK9TULHQO1eaF5kmhAsu2GsRWyomao5QvfJB3qbgImWCP0QFhqScX5+EeB7
3+znLnUwuec8Xpv+fRxZ
-----END CERTIFICATE-----
