Certificate:
    Data:
        Version: 3 (0x2)
        Serial Number: 13 (0xd)
        Signature Algorithm: sha256WithRSAEncryption
        Issuer: C=US, O=Google, OU=Enterprise, CN=Enterprise Subordinate CA
        Validity
            Not Before: May 17 10:46:35 2022 GMT
            Not After : Aug 24 10:46:35 2024 GMT
        Subject: C=US, O=Google, OU=Enterprise, CN=redis.yourdomain.com
        Subject Public Key Info:
            Public Key Algorithm: rsaEncryption
                RSA Public-Key: (2048 bit)
                Modulus:
                    00:c9:42:3f:ab:dc:fa:e2:3a:16:20:ab:c5:e5:5b:
                    6c:63:7a:ab:a2:65:10:4a:9a:f7:5c:1a:81:3a:15:
                    59:6b:84:2f:9b:b7:76:78:32:36:4f:c9:ce:64:ad:
                    7b:2a:3f:81:92:32:fa:03:15:86:0a:47:d9:32:9d:
                    ef:15:58:34:da:12:c8:13:ec:39:dd:d1:50:f1:02:
                    75:05:45:49:39:ff:3b:70:9d:58:28:49:c0:aa:30:
                    f9:7f:20:60:98:d8:d3:c0:7b:ee:23:ba:ea:39:50:
                    3d:7f:e2:1d:29:09:d8:3b:1c:41:32:b6:c4:6f:9b:
                    99:c0:00:4e:31:c7:56:98:b4:29:52:9e:50:0f:4d:
                    a3:71:47:03:60:5c:c2:a0:38:3c:8b:f8:d3:82:81:
                    a2:90:76:0b:a4:27:ea:28:cf:8d:96:1e:9c:6d:9a:
                    d0:8f:2c:91:9a:6e:b7:8e:79:63:31:31:bf:f9:1b:
                    6e:1f:3f:47:50:b1:c8:71:23:22:88:91:e6:8c:9f:
                    9f:4d:18:50:37:34:47:ff:38:a7:07:2d:b8:cf:52:
                    22:bd:42:17:99:6e:66:8b:58:65:7d:87:84:77:14:
                    34:78:d7:2d:d5:0e:61:54:cf:ab:9d:ad:43:8f:ba:
                    a5:2c:77:ec:b3:bf:62:1a:89:21:20:d9:9b:b3:a6:
                    dc:cb
                Exponent: 65537 (0x10001)
        X509v3 extensions:
            X509v3 Key Usage: critical
                Digital Signature
            X509v3 Basic Constraints: 
                CA:FALSE
            X509v3 Extended Key Usage: 
                TLS Web Server Authentication
            X509v3 Subject Key Identifier: 
                55:DF:D0:E0:B8:C0:0B:34:E4:B0:FB:A2:49:3D:0D:A5:8E:BE:D1:F5
            X509v3 Authority Key Identifier: 
                keyid:B7:BA:B0:02:A1:E7:BE:34:C6:C1:05:5C:66:78:E5:BB:53:5D:A1:54

            Authority Information Access: 
                CA Issuers - URI:http://pki.esodemoapp2.com/ca/tls-ca.cer

            X509v3 CRL Distribution Points: 

                Full Name:
                  URI:http://pki.esodemoapp2.com/ca/tls-ca.crl

            X509v3 Subject Alternative Name: 
                DNS:redis.yourdomain.com
    Signature Algorithm: sha256WithRSAEncryption
         10:3a:db:40:b4:25:18:0e:c6:e9:22:b7:83:5d:a8:02:23:12:
         1f:f9:36:c3:bd:d5:5a:16:77:a0:86:4a:08:65:4f:7f:2e:1a:
         5f:15:77:b5:25:dd:a0:1f:4b:68:da:0a:70:3b:9a:95:c4:0a:
         5e:de:81:46:0d:17:c7:df:bf:7c:fb:ad:8b:21:00:1d:4a:f0:
         52:52:2e:b3:f9:08:02:69:77:36:e5:dc:d5:bd:b9:b2:0f:42:
         02:0d:df:e5:90:84:c7:d9:13:d1:fb:7f:a0:e2:80:c4:e9:92:
         eb:d6:d8:89:14:7f:3c:79:98:ad:89:9a:cb:5a:14:89:96:32:
         46:9f:ef:46:ee:52:ec:d6:d5:04:fd:e8:36:4b:74:37:ab:ba:
         a2:bd:1d:98:1f:b9:54:79:d0:ff:18:81:13:3e:f8:bd:c3:8e:
         d8:f1:ed:47:e0:d8:c9:62:14:51:d1:9e:e2:c7:7d:89:56:2f:
         ff:c6:79:b5:f3:77:d9:14:b7:08:e6:3d:97:a1:b6:02:f9:db:
         e3:88:28:71:ba:8c:91:02:48:f6:3a:20:7e:42:62:e9:26:f4:
         9c:fe:d6:37:f6:7a:2e:06:d3:8f:3e:61:76:36:99:e4:e3:f8:
         9a:69:a5:49:3a:7a:0a:b9:a9:3d:35:c0:8b:52:f5:77:6e:54:
         81:02:dd:f3
-----BEGIN CERTIFICATE-----
MIIEPDCCAySgAwIBAgIBDTANBgkqhkiG9w0BAQsFADBXMQswCQYDVQQGEwJVUzEP
MA0GA1UECgwGR29vZ2xlMRMwEQYDVQQLDApFbnRlcnByaXNlMSIwIAYDVQQDDBlF
bnRlcnByaXNlIFN1Ym9yZGluYXRlIENBMB4XDTIyMDUxNzEwNDYzNVoXDTI0MDgy
NDEwNDYzNVowUjELMAkGA1UEBhMCVVMxDzANBgNVBAoMBkdvb2dsZTETMBEGA1UE
CwwKRW50ZXJwcmlzZTEdMBsGA1UEAwwUcmVkaXMueW91cmRvbWFpbi5jb20wggEi
MA0GCSqGSIb3DQEBAQUAA4IBDwAwggEKAoIBAQDJQj+r3PriOhYgq8XlW2xjequi
ZRBKmvdcGoE6FVlrhC+bt3Z4MjZPyc5krXsqP4GSMvoDFYYKR9kyne8VWDTaEsgT
7Dnd0VDxAnUFRUk5/ztwnVgoScCqMPl/IGCY2NPAe+4juuo5UD1/4h0pCdg7HEEy
tsRvm5nAAE4xx1aYtClSnlAPTaNxRwNgXMKgODyL+NOCgaKQdgukJ+ooz42WHpxt
mtCPLJGabreOeWMxMb/5G24fP0dQschxIyKIkeaMn59NGFA3NEf/OKcHLbjPUiK9
QheZbmaLWGV9h4R3FDR41y3VDmFUz6udrUOPuqUsd+yzv2IaiSEg2ZuzptzLAgMB
AAGjggEWMIIBEjAOBgNVHQ8BAf8EBAMCB4AwCQYDVR0TBAIwADATBgNVHSUEDDAK
BggrBgEFBQcDATAdBgNVHQ4EFgQUVd/Q4LjACzTksPuiST0NpY6+0fUwHwYDVR0j
BBgwFoAUt7qwAqHnvjTGwQVcZnjlu1NdoVQwRAYIKwYBBQUHAQEEODA2MDQGCCsG
AQUFBzAChihodHRwOi8vcGtpLmVzb2RlbW9hcHAyLmNvbS9jYS90bHMtY2EuY2Vy
MDkGA1UdHwQyMDAwLqAsoCqGKGh0dHA6Ly9wa2kuZXNvZGVtb2FwcDIuY29tL2Nh
L3Rscy1jYS5jcmwwHwYDVR0RBBgwFoIUcmVkaXMueW91cmRvbWFpbi5jb20wDQYJ
KoZIhvcNAQELBQADggEBABA620C0JRgOxukit4NdqAIjEh/5NsO91VoWd6CGSghl
T38uGl8Vd7Ul3aAfS2jaCnA7mpXECl7egUYNF8ffv3z7rYshAB1K8FJSLrP5CAJp
dzbl3NW9ubIPQgIN3+WQhMfZE9H7f6DigMTpkuvW2IkUfzx5mK2JmstaFImWMkaf
70buUuzW1QT96DZLdDeruqK9HZgfuVR50P8YgRM++L3Djtjx7Ufg2MliFFHRnuLH
fYlWL//GebXzd9kUtwjmPZehtgL52+OIKHG6jJECSPY6IH5CYukm9Jz+1jf2ei4G
048+YXY2meTj+JpppUk6egq5qT01wItS9XduVIEC3fM=
-----END CERTIFICATE-----
